target datalayout = "e-m:e-p270:32:32-p271:32:32-p272:64:64-i64:64-i128:128-f80:128-n8:16:32:64-S128"
target triple = "x86_64-unknown-linux-gnu"

%struct.PropertyInfo = type { ptr, ptr, ptr, i8, ptr, ptr, ptr, ptr, ptr, ptr }
%struct.Property = type { ptr, ptr, i64, i8, i64, i8, %union.anon.2, i32, ptr, i32, ptr }
%union.anon.2 = type { i64 }

; Function Attrs: nounwind sspstrong uwtable
define internal void @set_prop_pcielinkspeed(ptr noundef %obj, ptr noundef %v, ptr noundef %name, ptr noundef %opaque, ptr noundef %errp) #0 {
entry:
  %obj.addr = alloca ptr, align 8
  %v.addr = alloca ptr, align 8
  %name.addr = alloca ptr, align 8
  %opaque.addr = alloca ptr, align 8
  %errp.addr = alloca ptr, align 8
  %prop = alloca ptr, align 8
  %p = alloca ptr, align 8
  %speed = alloca i32, align 4
  store ptr %obj, ptr %obj.addr, align 8
  store ptr %v, ptr %v.addr, align 8
  store ptr %name, ptr %name.addr, align 8
  store ptr %opaque, ptr %opaque.addr, align 8
  store ptr %errp, ptr %errp.addr, align 8
  %0 = load ptr, ptr %opaque.addr, align 8
  store ptr %0, ptr %prop, align 8
  %1 = load ptr, ptr %obj.addr, align 8
  %2 = load ptr, ptr %prop, align 8
  %call = call ptr @object_field_prop_ptr(ptr noundef %1, ptr noundef %2)
  store ptr %call, ptr %p, align 8
  %3 = load ptr, ptr %v.addr, align 8
  %4 = load ptr, ptr %name.addr, align 8
  %5 = load ptr, ptr %prop, align 8
  %info = getelementptr inbounds %struct.Property, ptr %5, i32 0, i32 1
  %6 = load ptr, ptr %info, align 8
  %enum_table = getelementptr inbounds %struct.PropertyInfo, ptr %6, i32 0, i32 2
  %7 = load ptr, ptr %enum_table, align 8
  %8 = load ptr, ptr %errp.addr, align 8
  %call1 = call zeroext i1 @visit_type_enum(ptr noundef %3, ptr noundef %4, ptr noundef %speed, ptr noundef %7, ptr noundef %8)
  br i1 %call1, label %if.end, label %if.then

if.then:                                          ; preds = %entry
  br label %sw.epilog

if.end:                                           ; preds = %entry
  %9 = load i32, ptr %speed, align 4
  switch i32 %9, label %sw.default [
    i32 0, label %sw.bb
    i32 1, label %sw.bb2
    i32 2, label %sw.bb3
    i32 3, label %sw.bb4
  ]

sw.bb:                                            ; preds = %if.end
  %10 = load ptr, ptr %p, align 8
  store i32 1, ptr %10, align 4
  br label %sw.epilog

sw.bb2:                                           ; preds = %if.end
  %11 = load ptr, ptr %p, align 8
  store i32 2, ptr %11, align 4
  br label %sw.epilog

sw.bb3:                                           ; preds = %if.end
  %12 = load ptr, ptr %p, align 8
  store i32 3, ptr %12, align 4
  br label %sw.epilog

sw.bb4:                                           ; preds = %if.end
  %13 = load ptr, ptr %p, align 8
  store i32 4, ptr %13, align 4
  br label %sw.epilog

sw.default:                                       ; preds = %if.end
  call void @abort() #9
  unreachable

sw.epilog:                                        ; preds = %sw.bb4, %sw.bb3, %sw.bb2, %sw.bb, %if.then
  ret void
}