; Function Attrs: nounwind sspstrong uwtable
define internal void @set_prop_pcielinkspeed(ptr noundef %obj, ptr noundef %v, ptr noundef %name, ptr noundef %opaque, ptr noundef %errp) #0 {
entry:
  %speed = alloca i32, align 4
  %call = tail call ptr @object_field_prop_ptr(ptr noundef %obj, ptr noundef %opaque) #10
  %info = getelementptr inbounds nuw i8, ptr %opaque, i64 8
  %0 = load ptr, ptr %info, align 8
  %enum_table = getelementptr inbounds nuw i8, ptr %0, i64 16
  %1 = load ptr, ptr %enum_table, align 8
  %call1 = call zeroext i1 @visit_type_enum(ptr noundef %v, ptr noundef %name, ptr noundef nonnull %speed, ptr noundef %1, ptr noundef %errp) #10
  br i1 %call1, label %if.end, label %sw.epilog

if.end:                                           ; preds = %entry
  %2 = load i32, ptr %speed, align 4
  %3 = icmp ult i32 %2, 4
  br i1 %3, label %switch.lookup, label %sw.default

sw.default:                                       ; preds = %if.end
  call void @abort() #12
  unreachable

switch.lookup:                                    ; preds = %if.end
  %switch.offset = add nuw nsw i32 %2, 1
  store i32 %switch.offset, ptr %call, align 4
  br label %sw.epilog

sw.epilog:                                        ; preds = %switch.lookup, %entry
  ret void
}